Certificate:
    Data:
        Version: 3 (0x2)
        Serial Number: 268435670 (0x100000d6)
        Signature Algorithm: sha256WithRSAEncryption
        Issuer: C=DE, ST=Hessen, O=privacyidea, CN=CA001
        Validity
            Not Before: Jul 16 12:03:54 2021 GMT
            Not After : Jul 16 12:03:54 2022 GMT
        Subject: CN=selfservice,CN=user,O=realm1/emailAddress=meine
        Subject Public Key Info:
            Public Key Algorithm: rsaEncryption
                RSA Public-Key: (2048 bit)
                Modulus:
                    00:cf:3c:d4:33:0e:12:c4:e6:da:cd:b6:56:a1:1c:
                    26:bb:26:1c:8a:4a:73:a8:58:8a:b6:1e:b3:8b:99:
                    d2:1d:07:c2:92:89:79:c0:69:d8:c8:df:28:61:98:
                    1e:b3:fe:ae:2b:bd:78:a9:f7:6e:47:dc:a3:a0:16:
                    8c:85:02:c1:4e:92:fd:72:6e:f0:c8:03:29:9b:b8:
                    00:6e:c0:83:95:c8:34:20:36:9c:b3:e5:e4:e6:76:
                    73:a3:1a:ad:40:96:e0:53:54:00:ec:76:79:9a:c6:
                    0d:7e:b6:bd:29:ec:83:f3:cb:89:a4:cb:6c:00:ba:
                    0c:c5:78:0f:ff:69:b8:94:f4:04:70:43:3f:d8:9e:
                    d7:a7:fb:5d:ce:75:8e:da:e7:c4:07:b1:9d:de:6f:
                    88:4b:b6:4d:9a:cf:f9:bc:fa:9f:cd:32:6d:f6:3a:
                    0b:0d:23:42:78:ec:97:42:bf:0e:4d:60:56:e1:d3:
                    02:f2:19:cb:84:57:90:e5:70:a1:a2:83:35:86:e2:
                    da:86:9f:f9:8a:c4:79:b3:52:28:da:cb:bb:34:ca:
                    d3:da:91:4a:cf:8d:76:a2:b2:6b:9b:f9:96:fd:09:
                    2a:da:11:23:4d:f0:cb:d6:b2:b1:0e:12:6c:9a:19:
                    65:98:87:ca:e4:ee:24:ce:44:ac:90:8f:9d:1b:c5:
                    2a:9d
                Exponent: 65537 (0x10001)
        X509v3 extensions:
            X509v3 Key Usage: 
                Digital Signature, Key Encipherment
            X509v3 Basic Constraints: 
                CA:FALSE
            Netscape Cert Type: 
                SSL Server
            Netscape Comment: 
                OpenSSL Generated Server Certificate
            X509v3 Subject Key Identifier: 
                4D:07:90:AD:FF:1D:0D:E7:1A:DD:D6:2E:FA:BA:34:CB:AA:1F:24:C6
            X509v3 Authority Key Identifier: 
                keyid:F4:A7:C0:CC:91:46:AF:64:F3:91:F2:27:F8:C8:B2:6F:8A:87:32:73
                DirName:/C=DE/ST=Hessen/O=privacyidea/CN=CA001
                serial:FB:C8:EB:AC:83:CD:12:07

            X509v3 Extended Key Usage: 
                TLS Web Server Authentication
    Signature Algorithm: sha256WithRSAEncryption
         0c:4e:67:a0:05:72:5b:d6:65:9f:5e:24:27:fc:f9:cf:6c:42:
         47:59:bc:57:85:89:95:70:91:7e:2a:c9:c0:30:c7:6d:c2:4e:
         e1:4f:66:a2:e1:e0:73:19:ac:1e:55:e0:da:5a:3e:25:fc:d9:
         6a:36:63:8b:2d:7e:05:55:20:48:5c:88:bf:de:92:0d:a8:5d:
         d3:e4:0c:5d:19:9d:a6:5a:98:9f:7e:f4:74:be:06:ed:8a:35:
         fc:38:7a:bf:3e:97:aa:34:bf:a8:af:e0:06:66:9d:b4:31:90:
         b6:ae:65:b9:68:a2:3f:49:2f:cb:c2:c5:53:92:8f:ec:91:1e:
         17:b1:c6:66:d0:cc:29:ae:39:9e:4c:0b:35:6b:c5:9c:3c:51:
         ef:f3:65:fa:c1:15:79:5f:d2:9c:16:01:09:1a:5e:b7:b3:8f:
         36:50:10:13:45:eb:78:38:77:d6:9d:b2:d1:86:01:a4:66:61:
         23:68:54:38:51:8b:71:42:56:da:95:dc:db:9b:74:b2:5c:6d:
         33:b6:db:48:86:1e:79:d5:58:ee:28:a9:5b:d9:21:3f:35:94:
         ff:10:08:3b:10:08:0a:b0:9f:fe:ee:9b:bc:86:6f:7d:f7:ad:
         86:94:59:c2:51:03:ee:e4:b2:c4:29:b5:7c:35:ee:df:25:cc:
         3e:18:ca:32
-----BEGIN CERTIFICATE-----
MIIEDzCCAvegAwIBAgIEEAAA1jANBgkqhkiG9w0BAQsFADBEMQswCQYDVQQGEwJE
RTEPMA0GA1UECAwGSGVzc2VuMRQwEgYDVQQKDAtwcml2YWN5aWRlYTEOMAwGA1UE
AwwFQ0EwMDEwHhcNMjEwNzE2MTIwMzU0WhcNMjIwNzE2MTIwMzU0WjA9MSUwIwYD
VQQDDBxzZWxmc2VydmljZSxDTj11c2VyLE89cmVhbG0xMRQwEgYJKoZIhvcNAQkB
FgVtZWluZTCCASIwDQYJKoZIhvcNAQEBBQADggEPADCCAQoCggEBAM881DMOEsTm
2s22VqEcJrsmHIpKc6hYirYes4uZ0h0HwpKJecBp2MjfKGGYHrP+riu9eKn3bkfc
o6AWjIUCwU6S/XJu8MgDKZu4AG7Ag5XINCA2nLPl5OZ2c6MarUCW4FNUAOx2eZrG
DX62vSnsg/PLiaTLbAC6DMV4D/9puJT0BHBDP9ie16f7Xc51jtrnxAexnd5viEu2
TZrP+bz6n80ybfY6Cw0jQnjsl0K/Dk1gVuHTAvIZy4RXkOVwoaKDNYbi2oaf+YrE
ebNSKNrLuzTK09qRSs+NdqKya5v5lv0JKtoRI03wy9aysQ4SbJoZZZiHyuTuJM5E
rJCPnRvFKp0CAwEAAaOCAQ4wggEKMAsGA1UdDwQEAwIFoDAJBgNVHRMEAjAAMBEG
CWCGSAGG+EIBAQQEAwIGQDAzBglghkgBhvhCAQ0EJhYkT3BlblNTTCBHZW5lcmF0
ZWQgU2VydmVyIENlcnRpZmljYXRlMB0GA1UdDgQWBBRNB5Ct/x0N5xrd1i76ujTL
qh8kxjB0BgNVHSMEbTBrgBT0p8DMkUavZPOR8if4yLJviocyc6FIpEYwRDELMAkG
A1UEBhMCREUxDzANBgNVBAgMBkhlc3NlbjEUMBIGA1UECgwLcHJpdmFjeWlkZWEx
DjAMBgNVBAMMBUNBMDAxggkA+8jrrIPNEgcwEwYDVR0lBAwwCgYIKwYBBQUHAwEw
DQYJKoZIhvcNAQELBQADggEBAAxOZ6AFclvWZZ9eJCf8+c9sQkdZvFeFiZVwkX4q
ycAwx23CTuFPZqLh4HMZrB5V4NpaPiX82Wo2Y4stfgVVIEhciL/ekg2oXdPkDF0Z
naZamJ9+9HS+Bu2KNfw4er8+l6o0v6iv4AZmnbQxkLauZblooj9JL8vCxVOSj+yR
HhexxmbQzCmuOZ5MCzVrxZw8Ue/zZfrBFXlf0pwWAQkaXrezjzZQEBNF63g4d9ad
stGGAaRmYSNoVDhRi3FCVtqV3NubdLJcbTO220iGHnnVWO4oqVvZIT81lP8QCDsQ
CAqwn/7um7yGb333rYaUWcJRA+7kssQptXw17t8lzD4YyjI=
-----END CERTIFICATE-----
