Certificate:
    Data:
        Version: 3 (0x2)
        Serial Number: 268435668 (0x100000d4)
        Signature Algorithm: sha256WithRSAEncryption
        Issuer: C=DE, ST=Hessen, O=privacyidea, CN=CA001
        Validity
            Not Before: Jul 16 12:02:00 2021 GMT
            Not After : Jul 16 12:02:00 2022 GMT
        Subject: CN=cn=cornelius
        Subject Public Key Info:
            Public Key Algorithm: rsaEncryption
                RSA Public-Key: (2048 bit)
                Modulus:
                    00:ce:a4:39:30:25:73:e4:9d:e6:37:3b:85:59:83:
                    ef:a3:6e:f9:83:b9:f7:48:b0:0b:d5:e8:05:40:61:
                    cd:c5:5a:bc:11:2f:5b:4e:d0:4f:b8:d0:e8:7f:05:
                    ab:ad:24:0b:90:d4:3f:60:ec:15:b6:4e:be:8e:d9:
                    26:ab:f2:2f:7f:35:c2:a6:a1:bc:52:3a:d9:88:fb:
                    b3:fa:71:20:b9:51:0e:f8:af:0d:16:be:bd:5d:b9:
                    ab:30:d5:ac:6b:3c:bc:ee:28:4a:4f:6f:d4:09:15:
                    f7:98:af:77:db:36:15:2e:1e:ee:0f:d0:d9:60:ad:
                    db:b9:c4:3f:c6:25:32:f9:e3:e9:50:b8:ec:84:a0:
                    c4:d2:9c:fd:ce:25:80:85:7e:3a:ad:4c:a7:40:1b:
                    0a:58:18:9f:c2:5e:36:e1:d1:44:e9:46:b6:dc:b4:
                    28:a2:ec:ed:02:f7:25:79:e1:86:8e:69:67:52:ee:
                    82:21:b7:84:2d:cc:e7:a8:39:57:7d:a3:1e:e9:50:
                    63:77:29:ab:e4:a5:ff:dc:ee:4c:4b:5e:08:2b:62:
                    08:2d:75:b8:26:6c:93:eb:f5:45:ea:cd:83:58:53:
                    15:46:e6:6b:43:c1:2f:d9:88:4b:3d:d5:fd:0c:ff:
                    51:52:ed:54:fb:27:2d:59:ef:4c:50:ce:71:cd:eb:
                    5a:99
                Exponent: 65537 (0x10001)
        X509v3 extensions:
            X509v3 Key Usage: 
                Digital Signature, Key Encipherment
            X509v3 Basic Constraints: 
                CA:FALSE
            Netscape Cert Type: 
                SSL Server
            Netscape Comment: 
                OpenSSL Generated Server Certificate
            X509v3 Subject Key Identifier: 
                0E:D5:BA:4E:7D:92:57:15:FD:61:4E:34:5B:E9:62:D0:20:1C:7D:08
            X509v3 Authority Key Identifier: 
                keyid:F4:A7:C0:CC:91:46:AF:64:F3:91:F2:27:F8:C8:B2:6F:8A:87:32:73
                DirName:/C=DE/ST=Hessen/O=privacyidea/CN=CA001
                serial:FB:C8:EB:AC:83:CD:12:07

            X509v3 Extended Key Usage: 
                TLS Web Server Authentication
    Signature Algorithm: sha256WithRSAEncryption
         44:5a:17:03:bc:8c:ac:67:32:cc:0d:93:43:f5:c2:03:8b:ad:
         72:b0:c9:97:e7:8d:66:4f:94:68:c6:e0:fc:06:2f:d7:87:26:
         b1:b7:ad:9c:f3:1d:25:af:41:22:25:86:5b:8f:a7:02:ca:df:
         4e:0e:fc:08:e8:a9:87:e2:cf:5c:65:a9:d4:6a:73:dc:11:74:
         7f:80:c7:30:f0:b2:06:0f:5d:c1:f0:1e:5b:2f:a7:40:6c:eb:
         99:1c:c9:6c:d1:4e:e2:be:f1:e2:6e:2d:fd:ea:05:8d:b7:28:
         5f:0b:84:c5:f3:66:06:e3:80:42:40:05:cc:48:32:f4:dc:71:
         ec:77:b1:90:8e:59:ea:fb:5d:9b:66:01:6e:d3:17:72:dd:9d:
         62:79:84:0f:a9:c4:e4:3a:eb:29:70:cf:a5:c0:13:b2:e3:e4:
         c0:5a:a8:4d:b7:26:2d:32:a0:c2:e7:e7:5f:ee:5f:77:77:00:
         0b:46:19:a8:06:28:3a:49:7a:fe:c3:99:96:a3:49:fc:54:38:
         35:5e:59:73:56:b9:61:67:ca:ef:90:97:d9:a7:ae:74:f7:cc:
         6d:29:6c:d2:0b:f6:93:bc:90:ff:29:e5:e4:ab:b2:a9:f2:60:
         2a:3f:c4:cb:17:74:20:be:26:8a:18:4e:df:3c:b7:0e:17:41:
         57:58:9b:92
-----BEGIN CERTIFICATE-----
MIID6TCCAtGgAwIBAgIEEAAA1DANBgkqhkiG9w0BAQsFADBEMQswCQYDVQQGEwJE
RTEPMA0GA1UECAwGSGVzc2VuMRQwEgYDVQQKDAtwcml2YWN5aWRlYTEOMAwGA1UE
AwwFQ0EwMDEwHhcNMjEwNzE2MTIwMjAwWhcNMjIwNzE2MTIwMjAwWjAXMRUwEwYD
VQQDDAxjbj1jb3JuZWxpdXMwggEiMA0GCSqGSIb3DQEBAQUAA4IBDwAwggEKAoIB
AQDOpDkwJXPkneY3O4VZg++jbvmDufdIsAvV6AVAYc3FWrwRL1tO0E+40Oh/Baut
JAuQ1D9g7BW2Tr6O2Sar8i9/NcKmobxSOtmI+7P6cSC5UQ74rw0Wvr1duasw1axr
PLzuKEpPb9QJFfeYr3fbNhUuHu4P0Nlgrdu5xD/GJTL54+lQuOyEoMTSnP3OJYCF
fjqtTKdAGwpYGJ/CXjbh0UTpRrbctCii7O0C9yV54YaOaWdS7oIht4QtzOeoOVd9
ox7pUGN3Kavkpf/c7kxLXggrYggtdbgmbJPr9UXqzYNYUxVG5mtDwS/ZiEs91f0M
/1FS7VT7Jy1Z70xQznHN61qZAgMBAAGjggEOMIIBCjALBgNVHQ8EBAMCBaAwCQYD
VR0TBAIwADARBglghkgBhvhCAQEEBAMCBkAwMwYJYIZIAYb4QgENBCYWJE9wZW5T
U0wgR2VuZXJhdGVkIFNlcnZlciBDZXJ0aWZpY2F0ZTAdBgNVHQ4EFgQUDtW6Tn2S
VxX9YU40W+li0CAcfQgwdAYDVR0jBG0wa4AU9KfAzJFGr2TzkfIn+Miyb4qHMnOh
SKRGMEQxCzAJBgNVBAYTAkRFMQ8wDQYDVQQIDAZIZXNzZW4xFDASBgNVBAoMC3By
aXZhY3lpZGVhMQ4wDAYDVQQDDAVDQTAwMYIJAPvI66yDzRIHMBMGA1UdJQQMMAoG
CCsGAQUFBwMBMA0GCSqGSIb3DQEBCwUAA4IBAQBEWhcDvIysZzLMDZND9cIDi61y
sMmX541mT5RoxuD8Bi/Xhyaxt62c8x0lr0EiJYZbj6cCyt9ODvwI6KmH4s9cZanU
anPcEXR/gMcw8LIGD13B8B5bL6dAbOuZHMls0U7ivvHibi396gWNtyhfC4TF82YG
44BCQAXMSDL03HHsd7GQjlnq+12bZgFu0xdy3Z1ieYQPqcTkOuspcM+lwBOy4+TA
WqhNtyYtMqDC5+df7l93dwALRhmoBig6SXr+w5mWo0n8VDg1XllzVrlhZ8rvkJfZ
p65098xtKWzSC/aTvJD/KeXkq7Kp8mAqP8TLF3QgviaKGE7fPLcOF0FXWJuS
-----END CERTIFICATE-----
