Certificate:
    Data:
        Version: 3 (0x2)
        Serial Number: 268435669 (0x100000d5)
        Signature Algorithm: sha256WithRSAEncryption
        Issuer: C=DE, ST=Hessen, O=privacyidea, CN=CA001
        Validity
            Not Before: Jul 16 12:02:00 2021 GMT
            Not After : Jul 16 12:02:00 2022 GMT
        Subject: OU=realm1, CN=cornelius/emailAddress=user@localhost.localdomain
        Subject Public Key Info:
            Public Key Algorithm: rsaEncryption
                RSA Public-Key: (2048 bit)
                Modulus:
                    00:b0:be:9b:e2:3e:82:8a:71:4d:c1:63:1a:00:eb:
                    cc:aa:59:92:ed:17:fb:5c:ad:08:2d:26:a1:de:32:
                    bf:a1:e0:3d:83:da:74:eb:4a:98:42:55:c9:55:49:
                    70:d8:b0:12:6a:41:db:5b:9c:86:99:29:bc:84:37:
                    8f:93:64:05:49:81:c5:35:0f:61:08:18:f6:b5:0e:
                    59:83:b4:e9:2f:10:0b:3c:9f:28:b1:9b:f9:cc:9f:
                    b8:fe:0d:71:32:a8:81:d1:3f:49:54:f4:79:c8:82:
                    dc:43:58:ad:82:21:80:68:8b:66:6b:a0:3a:f3:36:
                    fa:53:09:1c:e2:b2:04:10:5d:a0:79:91:7a:96:56:
                    1e:0a:ad:92:d8:b7:1a:e7:3e:c6:1d:30:1d:a7:93:
                    fb:ce:3b:28:45:2c:e2:99:ce:c9:aa:52:07:0a:7b:
                    f4:50:e3:b6:c5:fb:f7:53:55:b9:62:9c:be:a9:50:
                    cc:03:18:3e:44:c3:53:18:48:32:e0:27:6c:ec:b8:
                    25:94:19:d9:02:7f:56:29:45:c3:20:a3:0c:77:72:
                    c9:76:b6:9b:55:e6:6c:ed:ed:4a:ae:aa:8e:3b:ea:
                    b3:b5:a0:d2:3b:6b:a3:cf:42:d3:19:f7:e6:68:fc:
                    46:77:47:f9:88:ff:e1:d7:34:51:7f:49:2a:be:1b:
                    c7:9f
                Exponent: 65537 (0x10001)
        X509v3 extensions:
            X509v3 Key Usage: 
                Digital Signature, Key Encipherment
            X509v3 Basic Constraints: 
                CA:FALSE
            Netscape Cert Type: 
                SSL Server
            Netscape Comment: 
                OpenSSL Generated Server Certificate
            X509v3 Subject Key Identifier: 
                FA:7B:77:B9:38:D7:C0:76:72:CF:7F:37:57:8E:F7:22:B5:B7:E6:AC
            X509v3 Authority Key Identifier: 
                keyid:F4:A7:C0:CC:91:46:AF:64:F3:91:F2:27:F8:C8:B2:6F:8A:87:32:73
                DirName:/C=DE/ST=Hessen/O=privacyidea/CN=CA001
                serial:FB:C8:EB:AC:83:CD:12:07

            X509v3 Extended Key Usage: 
                TLS Web Server Authentication
    Signature Algorithm: sha256WithRSAEncryption
         56:99:7b:56:d7:73:dd:1d:67:ac:10:8b:f3:5d:02:40:b7:5d:
         7f:7b:3a:68:f6:70:da:a1:c4:d8:4f:35:fd:6e:35:b9:e7:78:
         52:c0:ab:06:4c:4e:4e:d8:16:47:18:3f:b1:09:de:40:cc:35:
         69:27:73:18:39:ec:b8:6f:c1:23:37:8f:fe:55:e2:39:b5:e8:
         6a:6e:ac:27:aa:a3:b5:b4:67:13:89:b8:2e:ea:1a:33:a9:12:
         73:ce:26:e2:2c:e0:4b:bf:73:da:20:d5:70:73:09:f0:50:19:
         c0:72:ce:cb:31:73:84:65:06:7a:c6:44:26:5b:a9:b1:38:2e:
         c6:0f:38:3b:89:92:7d:4f:9c:70:55:ae:22:d5:89:75:5c:7a:
         a6:7c:23:f1:0b:20:97:81:cc:17:62:8b:42:c3:e2:a6:20:c6:
         3f:8c:d9:9d:c1:1d:b3:7b:99:3b:2b:13:cc:61:33:f8:34:b2:
         ad:e1:9a:c2:0e:77:b3:9f:c2:2b:d4:25:96:d2:a2:62:11:17:
         8b:15:9b:39:bc:eb:cd:07:9e:3a:9a:8e:b3:e8:c3:94:c2:4d:
         4b:f4:19:b4:50:12:ec:b8:b6:ab:71:66:e9:9b:bd:c9:fc:a4:
         db:32:47:13:89:4a:55:48:90:c5:c6:12:d5:af:85:d3:7c:5b:
         43:67:eb:49
-----BEGIN CERTIFICATE-----
MIIEIjCCAwqgAwIBAgIEEAAA1TANBgkqhkiG9w0BAQsFADBEMQswCQYDVQQGEwJE
RTEPMA0GA1UECAwGSGVzc2VuMRQwEgYDVQQKDAtwcml2YWN5aWRlYTEOMAwGA1UE
AwwFQ0EwMDEwHhcNMjEwNzE2MTIwMjAwWhcNMjIwNzE2MTIwMjAwWjBQMQ8wDQYD
VQQLDAZyZWFsbTExEjAQBgNVBAMMCWNvcm5lbGl1czEpMCcGCSqGSIb3DQEJARYa
dXNlckBsb2NhbGhvc3QubG9jYWxkb21haW4wggEiMA0GCSqGSIb3DQEBAQUAA4IB
DwAwggEKAoIBAQCwvpviPoKKcU3BYxoA68yqWZLtF/tcrQgtJqHeMr+h4D2D2nTr
SphCVclVSXDYsBJqQdtbnIaZKbyEN4+TZAVJgcU1D2EIGPa1DlmDtOkvEAs8nyix
m/nMn7j+DXEyqIHRP0lU9HnIgtxDWK2CIYBoi2ZroDrzNvpTCRzisgQQXaB5kXqW
Vh4KrZLYtxrnPsYdMB2nk/vOOyhFLOKZzsmqUgcKe/RQ47bF+/dTVblinL6pUMwD
GD5Ew1MYSDLgJ2zsuCWUGdkCf1YpRcMgowx3csl2tptV5mzt7Uquqo476rO1oNI7
a6PPQtMZ9+Zo/EZ3R/mI/+HXNFF/SSq+G8efAgMBAAGjggEOMIIBCjALBgNVHQ8E
BAMCBaAwCQYDVR0TBAIwADARBglghkgBhvhCAQEEBAMCBkAwMwYJYIZIAYb4QgEN
BCYWJE9wZW5TU0wgR2VuZXJhdGVkIFNlcnZlciBDZXJ0aWZpY2F0ZTAdBgNVHQ4E
FgQU+nt3uTjXwHZyz383V473IrW35qwwdAYDVR0jBG0wa4AU9KfAzJFGr2TzkfIn
+Miyb4qHMnOhSKRGMEQxCzAJBgNVBAYTAkRFMQ8wDQYDVQQIDAZIZXNzZW4xFDAS
BgNVBAoMC3ByaXZhY3lpZGVhMQ4wDAYDVQQDDAVDQTAwMYIJAPvI66yDzRIHMBMG
A1UdJQQMMAoGCCsGAQUFBwMBMA0GCSqGSIb3DQEBCwUAA4IBAQBWmXtW13PdHWes
EIvzXQJAt11/ezpo9nDaocTYTzX9bjW553hSwKsGTE5O2BZHGD+xCd5AzDVpJ3MY
Oey4b8EjN4/+VeI5tehqbqwnqqO1tGcTibgu6hozqRJzzibiLOBLv3PaINVwcwnw
UBnAcs7LMXOEZQZ6xkQmW6mxOC7GDzg7iZJ9T5xwVa4i1Yl1XHqmfCPxCyCXgcwX
YotCw+KmIMY/jNmdwR2ze5k7KxPMYTP4NLKt4ZrCDnezn8Ir1CWW0qJiEReLFZs5
vOvNB546mo6z6MOUwk1L9Bm0UBLsuLarcWbpm73J/KTbMkcTiUpVSJDFxhLVr4XT
fFtDZ+tJ
-----END CERTIFICATE-----
