Certificate:
    Data:
        Version: 3 (0x2)
        Serial Number: 268435670 (0x100000d6)
        Signature Algorithm: sha256WithRSAEncryption
        Issuer: C=DE, ST=Hessen, O=privacyidea, CN=CA001
        Validity
            Not Before: Jul 15 10:11:36 2021 GMT
            Not After : Jul 15 10:11:36 2022 GMT
        Subject: CN=selfservice,CN=user,O=realm1/emailAddress=meine
        Subject Public Key Info:
            Public Key Algorithm: rsaEncryption
                RSA Public-Key: (2048 bit)
                Modulus:
                    00:cf:3c:d4:33:0e:12:c4:e6:da:cd:b6:56:a1:1c:
                    26:bb:26:1c:8a:4a:73:a8:58:8a:b6:1e:b3:8b:99:
                    d2:1d:07:c2:92:89:79:c0:69:d8:c8:df:28:61:98:
                    1e:b3:fe:ae:2b:bd:78:a9:f7:6e:47:dc:a3:a0:16:
                    8c:85:02:c1:4e:92:fd:72:6e:f0:c8:03:29:9b:b8:
                    00:6e:c0:83:95:c8:34:20:36:9c:b3:e5:e4:e6:76:
                    73:a3:1a:ad:40:96:e0:53:54:00:ec:76:79:9a:c6:
                    0d:7e:b6:bd:29:ec:83:f3:cb:89:a4:cb:6c:00:ba:
                    0c:c5:78:0f:ff:69:b8:94:f4:04:70:43:3f:d8:9e:
                    d7:a7:fb:5d:ce:75:8e:da:e7:c4:07:b1:9d:de:6f:
                    88:4b:b6:4d:9a:cf:f9:bc:fa:9f:cd:32:6d:f6:3a:
                    0b:0d:23:42:78:ec:97:42:bf:0e:4d:60:56:e1:d3:
                    02:f2:19:cb:84:57:90:e5:70:a1:a2:83:35:86:e2:
                    da:86:9f:f9:8a:c4:79:b3:52:28:da:cb:bb:34:ca:
                    d3:da:91:4a:cf:8d:76:a2:b2:6b:9b:f9:96:fd:09:
                    2a:da:11:23:4d:f0:cb:d6:b2:b1:0e:12:6c:9a:19:
                    65:98:87:ca:e4:ee:24:ce:44:ac:90:8f:9d:1b:c5:
                    2a:9d
                Exponent: 65537 (0x10001)
        X509v3 extensions:
            X509v3 Key Usage: 
                Digital Signature, Key Encipherment
            X509v3 Basic Constraints: 
                CA:FALSE
            Netscape Cert Type: 
                SSL Server
            Netscape Comment: 
                OpenSSL Generated Server Certificate
            X509v3 Subject Key Identifier: 
                4D:07:90:AD:FF:1D:0D:E7:1A:DD:D6:2E:FA:BA:34:CB:AA:1F:24:C6
            X509v3 Authority Key Identifier: 
                keyid:F4:A7:C0:CC:91:46:AF:64:F3:91:F2:27:F8:C8:B2:6F:8A:87:32:73
                DirName:/C=DE/ST=Hessen/O=privacyidea/CN=CA001
                serial:FB:C8:EB:AC:83:CD:12:07

            X509v3 Extended Key Usage: 
                TLS Web Server Authentication
    Signature Algorithm: sha256WithRSAEncryption
         ad:79:85:7d:16:5e:e9:15:d7:46:d9:76:02:6e:32:2f:91:43:
         0f:b5:0f:26:92:8e:61:f0:d2:d1:64:5c:ad:6c:1f:92:10:bd:
         3c:21:f4:a2:24:be:49:43:e8:c0:37:eb:ca:14:45:e2:b4:eb:
         6d:f7:66:2d:44:63:9d:b5:d1:d3:9c:26:8c:04:2a:88:d3:a0:
         71:86:f9:66:21:58:23:f5:08:6f:f8:3c:d1:6a:ff:77:c8:19:
         29:75:fc:98:c3:02:9c:5c:18:cc:45:be:3d:b0:16:5c:06:69:
         14:c4:aa:9d:a2:41:6f:0f:8e:23:12:c5:df:a4:7f:83:8e:b9:
         36:07:da:06:e2:eb:14:49:c5:05:dc:90:4c:8d:c8:ce:48:f9:
         f2:e4:90:2e:1c:7d:ff:a6:b7:cb:ca:4e:bb:dd:1b:b0:91:82:
         c5:b6:d2:d4:0c:79:98:ee:de:b7:9b:d5:f9:55:da:da:25:c3:
         7b:13:0f:83:be:66:26:73:0c:a4:a0:74:79:67:e6:90:48:e3:
         23:32:3e:52:ec:19:f0:bc:32:2b:5b:df:48:ce:7a:88:c1:6d:
         8f:b8:ba:ec:40:d0:ae:a6:af:f4:65:ef:3f:86:c4:7a:92:a5:
         9b:ac:3c:69:de:70:7a:be:58:c9:7d:d6:54:03:e7:88:0f:ad:
         de:7d:c4:ce
-----BEGIN CERTIFICATE-----
MIIEDzCCAvegAwIBAgIEEAAA1jANBgkqhkiG9w0BAQsFADBEMQswCQYDVQQGEwJE
RTEPMA0GA1UECAwGSGVzc2VuMRQwEgYDVQQKDAtwcml2YWN5aWRlYTEOMAwGA1UE
AwwFQ0EwMDEwHhcNMjEwNzE1MTAxMTM2WhcNMjIwNzE1MTAxMTM2WjA9MSUwIwYD
VQQDDBxzZWxmc2VydmljZSxDTj11c2VyLE89cmVhbG0xMRQwEgYJKoZIhvcNAQkB
FgVtZWluZTCCASIwDQYJKoZIhvcNAQEBBQADggEPADCCAQoCggEBAM881DMOEsTm
2s22VqEcJrsmHIpKc6hYirYes4uZ0h0HwpKJecBp2MjfKGGYHrP+riu9eKn3bkfc
o6AWjIUCwU6S/XJu8MgDKZu4AG7Ag5XINCA2nLPl5OZ2c6MarUCW4FNUAOx2eZrG
DX62vSnsg/PLiaTLbAC6DMV4D/9puJT0BHBDP9ie16f7Xc51jtrnxAexnd5viEu2
TZrP+bz6n80ybfY6Cw0jQnjsl0K/Dk1gVuHTAvIZy4RXkOVwoaKDNYbi2oaf+YrE
ebNSKNrLuzTK09qRSs+NdqKya5v5lv0JKtoRI03wy9aysQ4SbJoZZZiHyuTuJM5E
rJCPnRvFKp0CAwEAAaOCAQ4wggEKMAsGA1UdDwQEAwIFoDAJBgNVHRMEAjAAMBEG
CWCGSAGG+EIBAQQEAwIGQDAzBglghkgBhvhCAQ0EJhYkT3BlblNTTCBHZW5lcmF0
ZWQgU2VydmVyIENlcnRpZmljYXRlMB0GA1UdDgQWBBRNB5Ct/x0N5xrd1i76ujTL
qh8kxjB0BgNVHSMEbTBrgBT0p8DMkUavZPOR8if4yLJviocyc6FIpEYwRDELMAkG
A1UEBhMCREUxDzANBgNVBAgMBkhlc3NlbjEUMBIGA1UECgwLcHJpdmFjeWlkZWEx
DjAMBgNVBAMMBUNBMDAxggkA+8jrrIPNEgcwEwYDVR0lBAwwCgYIKwYBBQUHAwEw
DQYJKoZIhvcNAQELBQADggEBAK15hX0WXukV10bZdgJuMi+RQw+1DyaSjmHw0tFk
XK1sH5IQvTwh9KIkvklD6MA368oUReK06233Zi1EY5210dOcJowEKojToHGG+WYh
WCP1CG/4PNFq/3fIGSl1/JjDApxcGMxFvj2wFlwGaRTEqp2iQW8PjiMSxd+kf4OO
uTYH2gbi6xRJxQXckEyNyM5I+fLkkC4cff+mt8vKTrvdG7CRgsW20tQMeZju3reb
1flV2tolw3sTD4O+ZiZzDKSgdHln5pBI4yMyPlLsGfC8Mitb30jOeojBbY+4uuxA
0K6mr/Rl7z+GxHqSpZusPGnecHq+WMl91lQD54gPrd59xM4=
-----END CERTIFICATE-----
