Certificate:
    Data:
        Version: 3 (0x2)
        Serial Number: 268435667 (0x100000d3)
        Signature Algorithm: sha256WithRSAEncryption
        Issuer: C=DE, ST=Hessen, O=privacyidea, CN=CA001
        Validity
            Not Before: Jul 15 10:09:26 2021 GMT
            Not After : Jul 15 10:09:26 2022 GMT
        Subject: C=DE, ST=Hessen, O=privacyidea, CN=requester.localdomain
        Subject Public Key Info:
            Public Key Algorithm: rsaEncryption
                RSA Public-Key: (2048 bit)
                Modulus:
                    00:cd:be:14:4f:fa:ce:01:3f:42:22:1b:1d:9c:af:
                    dd:92:d2:7f:db:6c:b7:3e:39:43:43:6b:13:03:f1:
                    05:f4:07:74:bc:76:69:28:0b:af:19:8e:d7:fc:e3:
                    cd:c6:58:f2:ca:7f:08:6d:53:fc:07:02:44:24:c6:
                    b4:34:4c:8c:04:fe:33:0e:40:e2:20:ba:02:73:5a:
                    f7:f5:4f:63:6e:cc:c6:b6:df:54:1d:37:39:7d:51:
                    36:26:5f:bd:dc:3f:a8:8b:6b:a2:ae:b6:9d:d6:21:
                    e7:df:41:b8:7a:28:2a:68:48:ca:a8:2d:ed:e1:e9:
                    46:5e:5a:72:6d:b4:84:38:87:91:fd:94:11:0b:28:
                    84:c6:c2:2f:2a:fb:01:f9:36:7a:09:75:d1:33:88:
                    3c:73:41:5b:c8:bf:94:89:70:a1:f0:c0:b9:2e:50:
                    53:1e:b1:17:64:69:f4:2d:81:e0:a9:0d:0e:32:e9:
                    ba:55:8a:85:f1:1b:6f:49:79:b4:7f:88:c3:0d:3e:
                    54:88:9b:3d:1f:38:8c:04:f3:ee:6a:63:2b:f5:c6:
                    db:b4:83:aa:c4:78:41:3a:7d:4b:e1:c8:3e:71:ca:
                    1b:61:59:ea:c6:c4:ca:32:5e:c9:e9:bf:12:29:e6:
                    c6:c3:63:fe:a0:55:da:7a:f1:60:98:4d:26:ed:fa:
                    70:2d
                Exponent: 65537 (0x10001)
        X509v3 extensions:
            X509v3 Key Usage: 
                Digital Signature, Key Encipherment
            X509v3 Basic Constraints: 
                CA:FALSE
            Netscape Cert Type: 
                SSL Server
            Netscape Comment: 
                OpenSSL Generated Server Certificate
            X509v3 Subject Key Identifier: 
                53:3F:ED:5D:09:07:B3:65:7B:AB:45:C9:24:5B:09:77:80:0A:96:ED
            X509v3 Authority Key Identifier: 
                keyid:F4:A7:C0:CC:91:46:AF:64:F3:91:F2:27:F8:C8:B2:6F:8A:87:32:73
                DirName:/C=DE/ST=Hessen/O=privacyidea/CN=CA001
                serial:FB:C8:EB:AC:83:CD:12:07

            X509v3 Extended Key Usage: 
                TLS Web Server Authentication
    Signature Algorithm: sha256WithRSAEncryption
         7e:c3:48:a5:5e:57:77:19:ca:53:71:4b:86:5e:de:67:90:12:
         5e:a2:f1:09:76:a8:e3:62:5d:e7:66:08:79:1b:9c:de:94:d6:
         8c:70:62:4b:3a:e2:02:cf:c8:60:5a:7e:83:57:34:1b:66:b0:
         03:07:27:de:95:93:70:3f:61:f3:52:b2:61:21:d3:dc:11:38:
         b6:90:49:30:02:be:3d:c7:c2:2d:22:8a:03:52:f8:99:3c:b5:
         a7:f4:9d:fc:5b:9e:49:a3:0b:14:85:5f:1a:17:e2:09:a1:6d:
         83:65:d0:7e:ba:6c:36:26:1a:69:43:a7:57:f4:b6:e9:0b:92:
         86:dd:67:c8:ad:e4:4e:91:99:05:82:f1:25:e9:e8:7b:f7:36:
         bb:02:82:94:48:49:98:9b:b7:28:62:a4:07:7b:59:94:44:67:
         a0:4a:f0:41:28:d8:11:3c:23:b6:c9:dc:48:44:aa:1d:3d:a8:
         23:fc:40:23:48:29:b4:3e:90:17:34:fa:b8:14:5b:56:ba:32:
         53:d2:bd:f6:b5:4c:59:e5:bd:c3:8c:36:67:4d:5a:ef:11:e6:
         11:13:77:d2:71:34:46:1f:8d:3f:38:ab:8d:51:53:0c:ef:a9:
         48:15:9a:bc:02:b3:b5:14:2b:1a:a6:bf:ce:16:d5:76:5d:ff:
         ac:90:3c:82
-----BEGIN CERTIFICATE-----
MIIEJjCCAw6gAwIBAgIEEAAA0zANBgkqhkiG9w0BAQsFADBEMQswCQYDVQQGEwJE
RTEPMA0GA1UECAwGSGVzc2VuMRQwEgYDVQQKDAtwcml2YWN5aWRlYTEOMAwGA1UE
AwwFQ0EwMDEwHhcNMjEwNzE1MTAwOTI2WhcNMjIwNzE1MTAwOTI2WjBUMQswCQYD
VQQGEwJERTEPMA0GA1UECAwGSGVzc2VuMRQwEgYDVQQKDAtwcml2YWN5aWRlYTEe
MBwGA1UEAwwVcmVxdWVzdGVyLmxvY2FsZG9tYWluMIIBIjANBgkqhkiG9w0BAQEF
AAOCAQ8AMIIBCgKCAQEAzb4UT/rOAT9CIhsdnK/dktJ/22y3PjlDQ2sTA/EF9Ad0
vHZpKAuvGY7X/OPNxljyyn8IbVP8BwJEJMa0NEyMBP4zDkDiILoCc1r39U9jbszG
tt9UHTc5fVE2Jl+93D+oi2uirrad1iHn30G4eigqaEjKqC3t4elGXlpybbSEOIeR
/ZQRCyiExsIvKvsB+TZ6CXXRM4g8c0FbyL+UiXCh8MC5LlBTHrEXZGn0LYHgqQ0O
Mum6VYqF8RtvSXm0f4jDDT5UiJs9HziMBPPuamMr9cbbtIOqxHhBOn1L4cg+ccob
YVnqxsTKMl7J6b8SKebGw2P+oFXaevFgmE0m7fpwLQIDAQABo4IBDjCCAQowCwYD
VR0PBAQDAgWgMAkGA1UdEwQCMAAwEQYJYIZIAYb4QgEBBAQDAgZAMDMGCWCGSAGG
+EIBDQQmFiRPcGVuU1NMIEdlbmVyYXRlZCBTZXJ2ZXIgQ2VydGlmaWNhdGUwHQYD
VR0OBBYEFFM/7V0JB7Nle6tFySRbCXeACpbtMHQGA1UdIwRtMGuAFPSnwMyRRq9k
85HyJ/jIsm+KhzJzoUikRjBEMQswCQYDVQQGEwJERTEPMA0GA1UECAwGSGVzc2Vu
MRQwEgYDVQQKDAtwcml2YWN5aWRlYTEOMAwGA1UEAwwFQ0EwMDGCCQD7yOusg80S
BzATBgNVHSUEDDAKBggrBgEFBQcDATANBgkqhkiG9w0BAQsFAAOCAQEAfsNIpV5X
dxnKU3FLhl7eZ5ASXqLxCXao42Jd52YIeRuc3pTWjHBiSzriAs/IYFp+g1c0G2aw
Awcn3pWTcD9h81KyYSHT3BE4tpBJMAK+PcfCLSKKA1L4mTy1p/Sd/FueSaMLFIVf
GhfiCaFtg2XQfrpsNiYaaUOnV/S26QuSht1nyK3kTpGZBYLxJenoe/c2uwKClEhJ
mJu3KGKkB3tZlERnoErwQSjYETwjtsncSESqHT2oI/xAI0gptD6QFzT6uBRbVroy
U9K99rVMWeW9w4w2Z01a7xHmERN30nE0Rh+NPzirjVFTDO+pSBWavAKztRQrGqa/
zhbVdl3/rJA8gg==
-----END CERTIFICATE-----
