Certificate:
    Data:
        Version: 3 (0x2)
        Serial Number: 268435668 (0x100000d4)
        Signature Algorithm: sha256WithRSAEncryption
        Issuer: C=DE, ST=Hessen, O=privacyidea, CN=CA001
        Validity
            Not Before: Jul 15 10:09:26 2021 GMT
            Not After : Jul 15 10:09:26 2022 GMT
        Subject: CN=cn=cornelius
        Subject Public Key Info:
            Public Key Algorithm: rsaEncryption
                RSA Public-Key: (2048 bit)
                Modulus:
                    00:ce:a4:39:30:25:73:e4:9d:e6:37:3b:85:59:83:
                    ef:a3:6e:f9:83:b9:f7:48:b0:0b:d5:e8:05:40:61:
                    cd:c5:5a:bc:11:2f:5b:4e:d0:4f:b8:d0:e8:7f:05:
                    ab:ad:24:0b:90:d4:3f:60:ec:15:b6:4e:be:8e:d9:
                    26:ab:f2:2f:7f:35:c2:a6:a1:bc:52:3a:d9:88:fb:
                    b3:fa:71:20:b9:51:0e:f8:af:0d:16:be:bd:5d:b9:
                    ab:30:d5:ac:6b:3c:bc:ee:28:4a:4f:6f:d4:09:15:
                    f7:98:af:77:db:36:15:2e:1e:ee:0f:d0:d9:60:ad:
                    db:b9:c4:3f:c6:25:32:f9:e3:e9:50:b8:ec:84:a0:
                    c4:d2:9c:fd:ce:25:80:85:7e:3a:ad:4c:a7:40:1b:
                    0a:58:18:9f:c2:5e:36:e1:d1:44:e9:46:b6:dc:b4:
                    28:a2:ec:ed:02:f7:25:79:e1:86:8e:69:67:52:ee:
                    82:21:b7:84:2d:cc:e7:a8:39:57:7d:a3:1e:e9:50:
                    63:77:29:ab:e4:a5:ff:dc:ee:4c:4b:5e:08:2b:62:
                    08:2d:75:b8:26:6c:93:eb:f5:45:ea:cd:83:58:53:
                    15:46:e6:6b:43:c1:2f:d9:88:4b:3d:d5:fd:0c:ff:
                    51:52:ed:54:fb:27:2d:59:ef:4c:50:ce:71:cd:eb:
                    5a:99
                Exponent: 65537 (0x10001)
        X509v3 extensions:
            X509v3 Key Usage: 
                Digital Signature, Key Encipherment
            X509v3 Basic Constraints: 
                CA:FALSE
            Netscape Cert Type: 
                SSL Server
            Netscape Comment: 
                OpenSSL Generated Server Certificate
            X509v3 Subject Key Identifier: 
                0E:D5:BA:4E:7D:92:57:15:FD:61:4E:34:5B:E9:62:D0:20:1C:7D:08
            X509v3 Authority Key Identifier: 
                keyid:F4:A7:C0:CC:91:46:AF:64:F3:91:F2:27:F8:C8:B2:6F:8A:87:32:73
                DirName:/C=DE/ST=Hessen/O=privacyidea/CN=CA001
                serial:FB:C8:EB:AC:83:CD:12:07

            X509v3 Extended Key Usage: 
                TLS Web Server Authentication
    Signature Algorithm: sha256WithRSAEncryption
         9b:bc:e2:2a:0a:5f:4e:42:e9:6c:88:e5:d0:ff:2b:a5:62:90:
         d8:1b:40:20:7d:2f:79:40:36:5e:4f:b4:81:b1:a9:25:5c:24:
         1e:e3:35:b3:0f:77:78:34:81:86:97:f8:50:e8:98:99:60:69:
         99:ba:1e:71:b1:38:44:b1:7a:c0:56:88:01:27:36:de:de:2f:
         55:81:ca:88:68:9e:2a:c7:d2:83:ac:01:e8:35:fd:67:fb:f9:
         ce:c6:a8:bb:43:77:be:ab:38:0c:50:08:e9:0d:c5:52:b0:84:
         b0:cd:7f:ca:f3:c6:ee:07:5f:48:b5:47:55:7c:b2:72:8f:e5:
         05:01:51:91:76:9e:c4:18:ad:71:f2:e4:1f:f3:b9:dc:0e:c0:
         2c:70:0e:d1:96:56:4f:5c:27:8e:3d:c0:f5:b4:4d:a6:20:5b:
         13:86:1e:32:8a:44:69:16:e5:63:aa:4c:c2:a5:c8:7c:50:b6:
         e3:cc:e9:d5:45:f4:42:6e:79:de:71:00:b8:4c:6f:ce:dc:0d:
         af:ce:30:9e:59:b9:75:70:99:f0:76:51:d0:bf:ea:ea:f8:0a:
         d5:a9:4a:d4:74:8e:62:95:2c:25:d8:ca:33:20:f8:49:2e:fc:
         3a:01:37:43:15:8f:62:e1:73:f9:48:48:f6:00:22:f1:18:7b:
         18:da:97:20
-----BEGIN CERTIFICATE-----
MIID6TCCAtGgAwIBAgIEEAAA1DANBgkqhkiG9w0BAQsFADBEMQswCQYDVQQGEwJE
RTEPMA0GA1UECAwGSGVzc2VuMRQwEgYDVQQKDAtwcml2YWN5aWRlYTEOMAwGA1UE
AwwFQ0EwMDEwHhcNMjEwNzE1MTAwOTI2WhcNMjIwNzE1MTAwOTI2WjAXMRUwEwYD
VQQDDAxjbj1jb3JuZWxpdXMwggEiMA0GCSqGSIb3DQEBAQUAA4IBDwAwggEKAoIB
AQDOpDkwJXPkneY3O4VZg++jbvmDufdIsAvV6AVAYc3FWrwRL1tO0E+40Oh/Baut
JAuQ1D9g7BW2Tr6O2Sar8i9/NcKmobxSOtmI+7P6cSC5UQ74rw0Wvr1duasw1axr
PLzuKEpPb9QJFfeYr3fbNhUuHu4P0Nlgrdu5xD/GJTL54+lQuOyEoMTSnP3OJYCF
fjqtTKdAGwpYGJ/CXjbh0UTpRrbctCii7O0C9yV54YaOaWdS7oIht4QtzOeoOVd9
ox7pUGN3Kavkpf/c7kxLXggrYggtdbgmbJPr9UXqzYNYUxVG5mtDwS/ZiEs91f0M
/1FS7VT7Jy1Z70xQznHN61qZAgMBAAGjggEOMIIBCjALBgNVHQ8EBAMCBaAwCQYD
VR0TBAIwADARBglghkgBhvhCAQEEBAMCBkAwMwYJYIZIAYb4QgENBCYWJE9wZW5T
U0wgR2VuZXJhdGVkIFNlcnZlciBDZXJ0aWZpY2F0ZTAdBgNVHQ4EFgQUDtW6Tn2S
VxX9YU40W+li0CAcfQgwdAYDVR0jBG0wa4AU9KfAzJFGr2TzkfIn+Miyb4qHMnOh
SKRGMEQxCzAJBgNVBAYTAkRFMQ8wDQYDVQQIDAZIZXNzZW4xFDASBgNVBAoMC3By
aXZhY3lpZGVhMQ4wDAYDVQQDDAVDQTAwMYIJAPvI66yDzRIHMBMGA1UdJQQMMAoG
CCsGAQUFBwMBMA0GCSqGSIb3DQEBCwUAA4IBAQCbvOIqCl9OQulsiOXQ/yulYpDY
G0AgfS95QDZeT7SBsaklXCQe4zWzD3d4NIGGl/hQ6JiZYGmZuh5xsThEsXrAVogB
Jzbe3i9VgcqIaJ4qx9KDrAHoNf1n+/nOxqi7Q3e+qzgMUAjpDcVSsISwzX/K88bu
B19ItUdVfLJyj+UFAVGRdp7EGK1x8uQf87ncDsAscA7RllZPXCeOPcD1tE2mIFsT
hh4yikRpFuVjqkzCpch8ULbjzOnVRfRCbnnecQC4TG/O3A2vzjCeWbl1cJnwdlHQ
v+rq+ArVqUrUdI5ilSwl2MozIPhJLvw6ATdDFY9i4XP5SEj2ACLxGHsY2pcg
-----END CERTIFICATE-----
