Certificate:
    Data:
        Version: 3 (0x2)
        Serial Number: 268435669 (0x100000d5)
        Signature Algorithm: sha256WithRSAEncryption
        Issuer: C=DE, ST=Hessen, O=privacyidea, CN=CA001
        Validity
            Not Before: Jul 15 10:09:26 2021 GMT
            Not After : Jul 15 10:09:26 2022 GMT
        Subject: OU=realm1, CN=cornelius/emailAddress=user@localhost.localdomain
        Subject Public Key Info:
            Public Key Algorithm: rsaEncryption
                RSA Public-Key: (2048 bit)
                Modulus:
                    00:9b:bc:a0:11:9d:dd:bf:1d:f3:0e:9c:69:1d:0e:
                    bc:d6:0a:d7:e0:61:7b:5a:08:fc:f6:44:1d:64:c4:
                    98:16:d6:61:80:8d:09:af:ef:0b:0b:ec:47:95:fc:
                    73:fe:b0:53:b5:8a:83:cd:7c:f2:85:cb:8a:ca:28:
                    3d:2e:cc:e6:f3:67:cf:1a:bd:4c:ce:1f:a3:17:98:
                    b6:92:38:5e:8b:45:9a:3e:51:77:58:0b:ef:4e:4d:
                    46:35:ff:3f:d3:5c:27:a4:17:d8:dc:d5:da:b4:de:
                    72:40:d0:3b:b6:34:a6:c4:89:2a:8a:cc:8b:0a:90:
                    b0:70:95:cc:c2:3a:e2:d3:b6:80:3d:85:bd:b9:be:
                    e3:48:53:f8:b1:0e:61:81:85:c6:31:40:a6:ef:24:
                    b0:1c:80:80:2a:62:1c:29:a6:0b:d1:aa:fa:0b:24:
                    ec:0a:62:fb:ba:f5:ae:7e:0e:f7:94:bb:26:44:31:
                    be:98:b1:de:f3:50:47:71:b1:9c:2f:1d:59:dd:c9:
                    f0:ae:0c:d0:6b:86:16:06:c3:b3:4b:50:5d:d1:ca:
                    81:89:4d:ac:58:d4:25:d6:64:cf:c2:0a:52:2e:e2:
                    a5:9f:7c:ef:dd:f3:c8:7b:e1:be:7a:1b:a1:56:41:
                    23:8d:ec:95:87:3b:2a:e0:d2:7b:a5:85:a3:f9:34:
                    1a:79
                Exponent: 65537 (0x10001)
        X509v3 extensions:
            X509v3 Key Usage: 
                Digital Signature, Key Encipherment
            X509v3 Basic Constraints: 
                CA:FALSE
            Netscape Cert Type: 
                SSL Server
            Netscape Comment: 
                OpenSSL Generated Server Certificate
            X509v3 Subject Key Identifier: 
                80:E4:FD:FD:73:D0:C6:16:ED:53:41:63:2C:5D:FE:57:10:C2:48:E3
            X509v3 Authority Key Identifier: 
                keyid:F4:A7:C0:CC:91:46:AF:64:F3:91:F2:27:F8:C8:B2:6F:8A:87:32:73
                DirName:/C=DE/ST=Hessen/O=privacyidea/CN=CA001
                serial:FB:C8:EB:AC:83:CD:12:07

            X509v3 Extended Key Usage: 
                TLS Web Server Authentication
    Signature Algorithm: sha256WithRSAEncryption
         44:6a:15:86:ab:6b:b5:b8:7f:8f:7e:3d:09:44:a0:cd:36:96:
         57:53:7b:29:8c:c1:0d:ff:7c:83:0b:bb:92:d8:fd:d3:85:93:
         71:78:f2:da:15:cc:24:02:2f:53:7d:2a:37:46:07:d1:da:9a:
         04:53:ef:c0:f7:6a:ca:52:85:68:41:16:97:46:59:36:39:ab:
         05:9c:2d:78:ae:30:92:66:95:2d:80:49:27:8a:b1:a7:0e:d2:
         c8:a0:32:57:6d:ad:88:e3:55:eb:7b:6e:d9:c7:ff:3e:8c:17:
         e4:2f:5d:45:9c:64:7b:d2:de:d8:5a:69:2c:50:53:32:c4:78:
         47:80:f2:52:1f:5d:a6:6f:ff:e4:25:d0:f1:34:41:53:46:bc:
         20:95:e9:74:50:cb:e9:aa:a9:55:fe:1d:69:8e:6d:c1:d5:b7:
         f9:fc:e1:15:c6:bc:ae:5f:26:72:16:98:4a:f7:e1:d2:49:a2:
         ca:05:f5:25:af:42:53:89:c4:b3:50:27:71:bb:86:05:e0:ff:
         69:d4:6f:50:37:bf:86:df:d5:7e:17:1c:12:c6:51:e1:74:3a:
         d3:cd:e5:65:5f:6c:7f:66:4e:a1:3d:56:c2:b7:43:61:0f:b5:
         66:22:5f:1b:e1:b3:fe:ab:7b:06:7b:40:d1:99:cf:0d:69:fe:
         6e:78:7d:6b
-----BEGIN CERTIFICATE-----
MIIEIjCCAwqgAwIBAgIEEAAA1TANBgkqhkiG9w0BAQsFADBEMQswCQYDVQQGEwJE
RTEPMA0GA1UECAwGSGVzc2VuMRQwEgYDVQQKDAtwcml2YWN5aWRlYTEOMAwGA1UE
AwwFQ0EwMDEwHhcNMjEwNzE1MTAwOTI2WhcNMjIwNzE1MTAwOTI2WjBQMQ8wDQYD
VQQLDAZyZWFsbTExEjAQBgNVBAMMCWNvcm5lbGl1czEpMCcGCSqGSIb3DQEJARYa
dXNlckBsb2NhbGhvc3QubG9jYWxkb21haW4wggEiMA0GCSqGSIb3DQEBAQUAA4IB
DwAwggEKAoIBAQCbvKARnd2/HfMOnGkdDrzWCtfgYXtaCPz2RB1kxJgW1mGAjQmv
7wsL7EeV/HP+sFO1ioPNfPKFy4rKKD0uzObzZ88avUzOH6MXmLaSOF6LRZo+UXdY
C+9OTUY1/z/TXCekF9jc1dq03nJA0Du2NKbEiSqKzIsKkLBwlczCOuLTtoA9hb25
vuNIU/ixDmGBhcYxQKbvJLAcgIAqYhwppgvRqvoLJOwKYvu69a5+DveUuyZEMb6Y
sd7zUEdxsZwvHVndyfCuDNBrhhYGw7NLUF3RyoGJTaxY1CXWZM/CClIu4qWffO/d
88h74b56G6FWQSON7JWHOyrg0nulhaP5NBp5AgMBAAGjggEOMIIBCjALBgNVHQ8E
BAMCBaAwCQYDVR0TBAIwADARBglghkgBhvhCAQEEBAMCBkAwMwYJYIZIAYb4QgEN
BCYWJE9wZW5TU0wgR2VuZXJhdGVkIFNlcnZlciBDZXJ0aWZpY2F0ZTAdBgNVHQ4E
FgQUgOT9/XPQxhbtU0FjLF3+VxDCSOMwdAYDVR0jBG0wa4AU9KfAzJFGr2TzkfIn
+Miyb4qHMnOhSKRGMEQxCzAJBgNVBAYTAkRFMQ8wDQYDVQQIDAZIZXNzZW4xFDAS
BgNVBAoMC3ByaXZhY3lpZGVhMQ4wDAYDVQQDDAVDQTAwMYIJAPvI66yDzRIHMBMG
A1UdJQQMMAoGCCsGAQUFBwMBMA0GCSqGSIb3DQEBCwUAA4IBAQBEahWGq2u1uH+P
fj0JRKDNNpZXU3spjMEN/3yDC7uS2P3ThZNxePLaFcwkAi9TfSo3RgfR2poEU+/A
92rKUoVoQRaXRlk2OasFnC14rjCSZpUtgEknirGnDtLIoDJXba2I41Xre27Zx/8+
jBfkL11FnGR70t7YWmksUFMyxHhHgPJSH12mb//kJdDxNEFTRrwglel0UMvpqqlV
/h1pjm3B1bf5/OEVxryuXyZyFphK9+HSSaLKBfUlr0JTicSzUCdxu4YF4P9p1G9Q
N7+G39V+FxwSxlHhdDrTzeVlX2x/Zk6hPVbCt0NhD7VmIl8b4bP+q3sGe0DRmc8N
af5ueH1r
-----END CERTIFICATE-----
